; Function Attrs: mustprogress uwtable
define noundef nonnull align 8 dereferenceable(128) ptr @_ZN9grpc_core11ChannelInit18FilterRegistration2IfEN4absl12lts_2024072212AnyInvocableIKFbRKNS_11ChannelArgsEEEE(ptr noundef nonnull returned align 8 dereferenceable(128) %0, ptr noundef %1) local_unnamed_addr #3 align 2 {
  %3 = getelementptr inbounds nuw i8, ptr %0, i64 88
  %4 = load ptr, ptr %3, align 8, !tbaa !26
  %5 = getelementptr inbounds nuw i8, ptr %0, i64 96
  %6 = load ptr, ptr %5, align 8, !tbaa !29
  %.not.i = icmp eq ptr %4, %6
  br i1 %.not.i, label %17, label %7

7:                                                ; preds = %2
  %8 = getelementptr inbounds nuw i8, ptr %1, i64 16
  %9 = load ptr, ptr %8, align 16, !tbaa !30
  tail call void %9(i1 noundef zeroext false, ptr noundef nonnull align 16 dereferenceable(32) %1, ptr noundef nonnull align 16 dereferenceable(32) %4) #34
  %10 = load ptr, ptr %8, align 16, !tbaa !30
  %11 = getelementptr inbounds nuw i8, ptr %4, i64 16
  store ptr %10, ptr %11, align 16, !tbaa !30
  %12 = getelementptr inbounds nuw i8, ptr %1, i64 24
  %13 = load ptr, ptr %12, align 8, !tbaa !32
  %14 = getelementptr inbounds nuw i8, ptr %4, i64 24
  store ptr %13, ptr %14, align 8, !tbaa !32
  store ptr @_ZN4absl12lts_2024072222internal_any_invocable12EmptyManagerENS1_14FunctionToCallEPNS1_15TypeErasedStateES4_, ptr %8, align 16, !tbaa !30
  store ptr null, ptr %12, align 8, !tbaa !32
  %15 = load ptr, ptr %3, align 8, !tbaa !26
  %16 = getelementptr inbounds nuw i8, ptr %15, i64 32
  store ptr %16, ptr %3, align 8, !tbaa !26
  br label %_ZNSt6vectorIN4absl12lts_2024072212AnyInvocableIKFbRKN9grpc_core11ChannelArgsEEEESaIS8_EE12emplace_backIJS8_EEERS8_DpOT_.exit

17:                                               ; preds = %2
  %18 = getelementptr inbounds nuw i8, ptr %0, i64 80
  tail call void @_ZNSt6vectorIN4absl12lts_2024072212AnyInvocableIKFbRKN9grpc_core11ChannelArgsEEEESaIS8_EE17_M_realloc_insertIJS8_EEEvN9__gnu_cxx17__normal_iteratorIPS8_SA_EEDpOT_(ptr noundef nonnull align 8 dereferenceable(24) %18, ptr %4, ptr noundef nonnull align 16 dereferenceable(32) %1)
  br label %_ZNSt6vectorIN4absl12lts_2024072212AnyInvocableIKFbRKN9grpc_core11ChannelArgsEEEESaIS8_EE12emplace_backIJS8_EEERS8_DpOT_.exit

_ZNSt6vectorIN4absl12lts_2024072212AnyInvocableIKFbRKN9grpc_core11ChannelArgsEEEESaIS8_EE12emplace_backIJS8_EEERS8_DpOT_.exit: ; preds = %7, %17
  ret ptr %0
}